; Function Attrs: mustprogress nounwind uwtable
define hidden noundef i64 @_ZN15G1GCAllocRegion6retireEb(ptr noundef nonnull align 8 dereferenceable(57) %0, i1 noundef zeroext %1) unnamed_addr #1 align 2 {
  %3 = getelementptr inbounds i8, ptr %0, i64 8
  %4 = load volatile ptr, ptr %3, align 8
  %5 = load ptr, ptr @_ZN13G1AllocRegion13_dummy_regionE, align 8
  %6 = icmp eq ptr %4, %5
  %7 = tail call noundef i64 @_ZN13G1AllocRegion6retireEb(ptr noundef nonnull align 8 dereferenceable(36) %0, i1 noundef zeroext %1)
  %.not4 = icmp eq ptr %4, null
  %.not = or i1 %.not4, %6
  br i1 %.not, label %16, label %8

8:                                                ; preds = %2
  %9 = getelementptr inbounds i8, ptr %0, i64 48
  %10 = load ptr, ptr %9, align 8
  %11 = lshr i64 %7, 3
  %12 = getelementptr inbounds i8, ptr %10, i64 88
  %13 = tail call noundef i64 asm sideeffect "lock xaddq $0,($2)", "=r,0,r,~{cc},~{memory},~{dirflag},~{fpsr},~{flags}"(i64 %11, ptr nonnull %12) #12, !srcloc !11
  %14 = getelementptr inbounds i8, ptr %10, i64 96
  %15 = tail call noundef i32 asm sideeffect "lock xaddl $0,($2)", "=r,0,r,~{cc},~{memory},~{dirflag},~{fpsr},~{flags}"(i32 1, ptr nonnull %14) #12, !srcloc !12
  br label %16

16:                                               ; preds = %8, %2
  ret i64 %7
}